target datalayout = "e-m:e-p270:32:32-p271:32:32-p272:64:64-i64:64-i128:128-f80:128-n8:16:32:64-S128"
target triple = "x86_64-pc-linux-gnu"

%class.AccessFlags = type { i32 }
%class.ClassFileParser = type { ptr, ptr, ptr, i8, i8, i32, ptr, ptr, ptr, ptr, ptr, ptr, ptr, i16, ptr, ptr, ptr, ptr, ptr, ptr, ptr, ptr, ptr, ptr, ptr, ptr, ptr, ptr, ptr, ptr, ptr, [128 x i8], i32, i32, i32, %class.Handle, %class.AccessFlags, i32, i16, i8, i32, ptr, i16, i16, i16, i16, i16, i16, i16, i16, i8, i8, i8, i8, i8, i8, i8, i8, i8, i32 }
%class.Handle = type { ptr }

@.str.176 = private unnamed_addr constant [81 x i8] c"Class name is empty or contains illegal character in descriptor in class file %s\00", align 1
@.str.177 = private unnamed_addr constant [68 x i8] c"Array type descriptor has more than 255 dimensions in class file %s\00", align 1

; Function Attrs: mustprogress nounwind uwtable
define linkonce_odr hidden noundef i64 @_Z13pointer_deltaPVKvS0_m(ptr noundef %0, ptr noundef %1, i64 noundef %2) #1 comdat {
  %4 = alloca ptr, align 8
  %5 = alloca ptr, align 8
  %6 = alloca i64, align 8
  store ptr %0, ptr %4, align 8
  store ptr %1, ptr %5, align 8
  store i64 %2, ptr %6, align 8
  %7 = load ptr, ptr %4, align 8
  %8 = ptrtoint ptr %7 to i64
  %9 = load ptr, ptr %5, align 8
  %10 = ptrtoint ptr %9 to i64
  %11 = sub i64 %8, %10
  %12 = load i64, ptr %6, align 8
  %13 = udiv i64 %11, %12
  ret i64 %13
}

; Function Attrs: mustprogress nounwind uwtable
define hidden noundef zeroext i1 @_ZN15ClassFileParser23verify_unqualified_nameEPKcji(ptr noundef %0, i32 noundef %1, i32 noundef %2) #1 align 2 {
  %4 = alloca i1, align 1
  %5 = alloca ptr, align 8
  %6 = alloca i32, align 4
  %7 = alloca i32, align 4
  %8 = alloca ptr, align 8
  store ptr %0, ptr %5, align 8
  store i32 %1, ptr %6, align 4
  store i32 %2, ptr %7, align 4
  %9 = load i32, ptr %6, align 4
  %10 = icmp eq i32 %9, 0
  br i1 %10, label %11, label %12

11:                                               ; preds = %3
  store i1 false, ptr %4, align 1
  br label %61

12:                                               ; preds = %3
  %13 = load ptr, ptr %5, align 8
  store ptr %13, ptr %8, align 8
  br label %14

14:                                               ; preds = %57, %12
  %15 = load ptr, ptr %8, align 8
  %16 = load ptr, ptr %5, align 8
  %17 = load i32, ptr %6, align 4
  %18 = zext i32 %17 to i64
  %19 = getelementptr inbounds i8, ptr %16, i64 %18
  %20 = icmp ne ptr %15, %19
  br i1 %20, label %21, label %60

21:                                               ; preds = %14
  %22 = load ptr, ptr %8, align 8
  %23 = load i8, ptr %22, align 1
  %24 = sext i8 %23 to i32
  switch i32 %24, label %56 [
    i32 46, label %25
    i32 59, label %25
    i32 91, label %25
    i32 47, label %26
    i32 60, label %51
    i32 62, label %51
  ]

25:                                               ; preds = %21, %21, %21
  store i1 false, ptr %4, align 1
  br label %61

26:                                               ; preds = %21
  %27 = load i32, ptr %7, align 4
  %28 = icmp eq i32 %27, 0
  br i1 %28, label %29, label %49

29:                                               ; preds = %26
  %30 = load ptr, ptr %8, align 8
  %31 = load ptr, ptr %5, align 8
  %32 = icmp eq ptr %30, %31
  br i1 %32, label %47, label %33

33:                                               ; preds = %29
  %34 = load ptr, ptr %8, align 8
  %35 = getelementptr inbounds i8, ptr %34, i64 1
  %36 = load ptr, ptr %5, align 8
  %37 = load i32, ptr %6, align 4
  %38 = zext i32 %37 to i64
  %39 = getelementptr inbounds i8, ptr %36, i64 %38
  %40 = icmp uge ptr %35, %39
  br i1 %40, label %47, label %41

41:                                               ; preds = %33
  %42 = load ptr, ptr %8, align 8
  %43 = getelementptr inbounds i8, ptr %42, i64 1
  %44 = load i8, ptr %43, align 1
  %45 = sext i8 %44 to i32
  %46 = icmp eq i32 %45, 47
  br i1 %46, label %47, label %48

47:                                               ; preds = %41, %33, %29
  store i1 false, ptr %4, align 1
  br label %61

48:                                               ; preds = %41
  br label %50

49:                                               ; preds = %26
  store i1 false, ptr %4, align 1
  br label %61

50:                                               ; preds = %48
  br label %56

51:                                               ; preds = %21, %21
  %52 = load i32, ptr %7, align 4
  %53 = icmp eq i32 %52, 2
  br i1 %53, label %54, label %55

54:                                               ; preds = %51
  store i1 false, ptr %4, align 1
  br label %61

55:                                               ; preds = %51
  br label %56

56:                                               ; preds = %55, %50, %21
  br label %57

57:                                               ; preds = %56
  %58 = load ptr, ptr %8, align 8
  %59 = getelementptr inbounds i8, ptr %58, i32 1
  store ptr %59, ptr %8, align 8
  br label %14, !llvm.loop !56

60:                                               ; preds = %14
  store i1 true, ptr %4, align 1
  br label %61

61:                                               ; preds = %60, %54, %49, %47, %25, %11
  %62 = load i1, ptr %4, align 1
  ret i1 %62
}

; Function Attrs: mustprogress nounwind uwtable
define linkonce_odr hidden noundef i32 @_Z20pointer_delta_as_intIcEiPVKT_S2_(ptr noundef %0, ptr noundef %1) #1 comdat {
  %3 = alloca ptr, align 8
  %4 = alloca ptr, align 8
  %5 = alloca i64, align 8
  store ptr %0, ptr %3, align 8
  store ptr %1, ptr %4, align 8
  %6 = load ptr, ptr %3, align 8
  %7 = load ptr, ptr %4, align 8
  %8 = call noundef i64 @_Z13pointer_deltaPVKvS0_m(ptr noundef %6, ptr noundef %7, i64 noundef 1)
  store i64 %8, ptr %5, align 8
  %9 = load i64, ptr %5, align 8
  %10 = trunc i64 %9 to i32
  ret i32 %10
}

; Function Attrs: mustprogress nounwind uwtable
define hidden noundef ptr @_ZNK15ClassFileParser25skip_over_field_signatureEPKcbjP10JavaThread(ptr noundef nonnull align 8 dereferenceable(440) %0, ptr noundef %1, i1 noundef zeroext %2, i32 noundef %3, ptr noundef %4) #1 align 2 {
  %6 = alloca ptr, align 8
  %7 = alloca ptr, align 8
  %8 = alloca ptr, align 8
  %9 = alloca i8, align 1
  %10 = alloca i32, align 4
  %11 = alloca ptr, align 8
  %12 = alloca i32, align 4
  %13 = alloca ptr, align 8
  %14 = alloca ptr, align 8
  %15 = alloca i32, align 4
  %16 = alloca i8, align 1
  store ptr %0, ptr %7, align 8
  store ptr %1, ptr %8, align 8
  %17 = zext i1 %2 to i8
  store i8 %17, ptr %9, align 1
  store i32 %3, ptr %10, align 4
  store ptr %4, ptr %11, align 8
  %18 = load ptr, ptr %7, align 8
  store i32 0, ptr %12, align 4
  br label %19

19:                                               ; preds = %108, %5
  %20 = load i32, ptr %10, align 4
  %21 = icmp ugt i32 %20, 0
  br i1 %21, label %22, label %109

22:                                               ; preds = %19
  %23 = load ptr, ptr %8, align 8
  %24 = getelementptr inbounds i8, ptr %23, i64 0
  %25 = load i8, ptr %24, align 1
  %26 = sext i8 %25 to i32
  switch i32 %26, label %107 [
    i32 86, label %27
    i32 90, label %32
    i32 66, label %32
    i32 67, label %32
    i32 83, label %32
    i32 73, label %32
    i32 70, label %32
    i32 74, label %32
    i32 68, label %32
    i32 76, label %35
    i32 91, label %95
  ]

27:                                               ; preds = %22
  %28 = load i8, ptr %9, align 1
  %29 = trunc i8 %28 to i1
  br i1 %29, label %31, label %30

30:                                               ; preds = %27
  store ptr null, ptr %6, align 8
  br label %110

31:                                               ; preds = %27
  br label %32

32:                                               ; preds = %31, %22, %22, %22, %22, %22, %22, %22, %22
  %33 = load ptr, ptr %8, align 8
  %34 = getelementptr inbounds i8, ptr %33, i64 1
  store ptr %34, ptr %6, align 8
  br label %110

35:                                               ; preds = %22
  %36 = getelementptr inbounds %class.ClassFileParser, ptr %18, i32 0, i32 44
  %37 = load i16, ptr %36, align 4
  %38 = zext i16 %37 to i32
  %39 = icmp slt i32 %38, 49
  br i1 %39, label %40, label %65

40:                                               ; preds = %35
  %41 = load ptr, ptr %8, align 8
  %42 = getelementptr inbounds i8, ptr %41, i64 1
  %43 = load i32, ptr %10, align 4
  %44 = add i32 %43, -1
  store i32 %44, ptr %10, align 4
  %45 = call noundef ptr @_ZL20skip_over_field_namePKcbj(ptr noundef %42, i1 noundef zeroext true, i32 noundef %44)
  store ptr %45, ptr %13, align 8
  %46 = load ptr, ptr %13, align 8
  %47 = icmp ne ptr %46, null
  br i1 %47, label %48, label %64

48:                                               ; preds = %40
  %49 = load ptr, ptr %13, align 8
  %50 = load ptr, ptr %8, align 8
  %51 = ptrtoint ptr %49 to i64
  %52 = ptrtoint ptr %50 to i64
  %53 = sub i64 %51, %52
  %54 = icmp sgt i64 %53, 1
  br i1 %54, label %55, label %64

55:                                               ; preds = %48
  %56 = load ptr, ptr %13, align 8
  %57 = getelementptr inbounds i8, ptr %56, i64 0
  %58 = load i8, ptr %57, align 1
  %59 = sext i8 %58 to i32
  %60 = icmp eq i32 %59, 59
  br i1 %60, label %61, label %64

61:                                               ; preds = %55
  %62 = load ptr, ptr %13, align 8
  %63 = getelementptr inbounds i8, ptr %62, i64 1
  store ptr %63, ptr %6, align 8
  br label %110

64:                                               ; preds = %55, %48, %40
  br label %94

65:                                               ; preds = %35
  %66 = load ptr, ptr %8, align 8
  %67 = getelementptr inbounds i8, ptr %66, i32 1
  store ptr %67, ptr %8, align 8
  %68 = load ptr, ptr %8, align 8
  %69 = load i32, ptr %10, align 4
  %70 = sub i32 %69, 1
  %71 = zext i32 %70 to i64
  %72 = call noundef ptr @memchr(ptr noundef %68, i32 noundef 59, i64 noundef %71) #13
  store ptr %72, ptr %14, align 8
  %73 = load ptr, ptr %14, align 8
  %74 = icmp ne ptr %73, null
  br i1 %74, label %75, label %93

75:                                               ; preds = %65
  %76 = load ptr, ptr %14, align 8
  %77 = load ptr, ptr %8, align 8
  %78 = call noundef i32 @_Z20pointer_delta_as_intIcEiPVKT_S2_(ptr noundef %76, ptr noundef %77)
  store i32 %78, ptr %15, align 4
  %79 = load ptr, ptr %8, align 8
  %80 = load i32, ptr %15, align 4
  %81 = call noundef zeroext i1 @_ZN15ClassFileParser23verify_unqualified_nameEPKcji(ptr noundef %79, i32 noundef %80, i32 noundef 0)
  %82 = zext i1 %81 to i8
  store i8 %82, ptr %16, align 1
  %83 = load i8, ptr %16, align 1
  %84 = trunc i8 %83 to i1
  br i1 %84, label %87, label %85

85:                                               ; preds = %75
  %86 = load ptr, ptr %11, align 8
  call void @_ZNK15ClassFileParser21classfile_parse_errorEPKcP10JavaThread(ptr noundef nonnull align 8 dereferenceable(440) %18, ptr noundef @.str.176, ptr noundef %86)
  store ptr null, ptr %6, align 8
  br label %110

87:                                               ; preds = %75
  %88 = load ptr, ptr %8, align 8
  %89 = load i32, ptr %15, align 4
  %90 = sext i32 %89 to i64
  %91 = getelementptr inbounds i8, ptr %88, i64 %90
  %92 = getelementptr inbounds i8, ptr %91, i64 1
  store ptr %92, ptr %6, align 8
  br label %110

93:                                               ; preds = %65
  br label %94

94:                                               ; preds = %93, %64
  store ptr null, ptr %6, align 8
  br label %110

95:                                               ; preds = %22
  %96 = load i32, ptr %12, align 4
  %97 = add i32 %96, 1
  store i32 %97, ptr %12, align 4
  %98 = load i32, ptr %12, align 4
  %99 = icmp ugt i32 %98, 255
  br i1 %99, label %100, label %102

100:                                              ; preds = %95
  %101 = load ptr, ptr %11, align 8
  call void @_ZNK15ClassFileParser21classfile_parse_errorEPKcP10JavaThread(ptr noundef nonnull align 8 dereferenceable(440) %18, ptr noundef @.str.177, ptr noundef %101)
  store ptr null, ptr %6, align 8
  br label %110

102:                                              ; preds = %95
  %103 = load ptr, ptr %8, align 8
  %104 = getelementptr inbounds i8, ptr %103, i32 1
  store ptr %104, ptr %8, align 8
  %105 = load i32, ptr %10, align 4
  %106 = add i32 %105, -1
  store i32 %106, ptr %10, align 4
  store i8 0, ptr %9, align 1
  br label %108

107:                                              ; preds = %22
  store ptr null, ptr %6, align 8
  br label %110

108:                                              ; preds = %102
  br label %19, !llvm.loop !57

109:                                              ; preds = %19
  store ptr null, ptr %6, align 8
  br label %110

110:                                              ; preds = %109, %107, %100, %94, %87, %85, %61, %32, %30
  %111 = load ptr, ptr %6, align 8
  ret ptr %111
}