; Function Attrs: mustprogress nounwind uwtable
define hidden noundef ptr @_ZNK15ClassFileParser25skip_over_field_signatureEPKcbjP10JavaThread(ptr noundef nonnull align 8 dereferenceable(440) %0, ptr noundef %1, i1 noundef zeroext %2, i32 noundef %3, ptr noundef %4) local_unnamed_addr #1 align 2 {
  %.not58 = icmp eq i32 %3, 0
  br i1 %.not58, label %.loopexit43, label %.lr.ph

.lr.ph:                                           ; preds = %5, %49
  %.02962 = phi ptr [ %51, %49 ], [ %1, %5 ]
  %.03061 = phi i1 [ false, %49 ], [ %2, %5 ]
  %.03160 = phi i32 [ %52, %49 ], [ %3, %5 ]
  %.03259 = phi i32 [ %50, %49 ], [ 0, %5 ]
  %6 = load i8, ptr %.02962, align 1
  switch i8 %6, label %.loopexit43 [
    i8 86, label %7
    i8 90, label %.loopexit44
    i8 66, label %.loopexit44
    i8 67, label %.loopexit44
    i8 83, label %.loopexit44
    i8 73, label %.loopexit44
    i8 70, label %.loopexit44
    i8 74, label %.loopexit44
    i8 68, label %.loopexit44
    i8 76, label %9
    i8 91, label %47
  ]

7:                                                ; preds = %.lr.ph
  br i1 %.03061, label %.loopexit44, label %.loopexit43

.loopexit44:                                      ; preds = %.lr.ph, %.lr.ph, %.lr.ph, %.lr.ph, %.lr.ph, %.lr.ph, %.lr.ph, %.lr.ph, %7
  %8 = getelementptr inbounds i8, ptr %.02962, i64 1
  br label %.loopexit43

9:                                                ; preds = %.lr.ph
  %10 = getelementptr inbounds i8, ptr %0, i64 412
  %11 = load i16, ptr %10, align 4
  %12 = icmp ult i16 %11, 49
  %13 = getelementptr inbounds i8, ptr %.02962, i64 1
  %14 = add i32 %.03160, -1
  br i1 %12, label %15, label %25

15:                                               ; preds = %9
  %16 = tail call fastcc noundef ptr @_ZL20skip_over_field_namePKcbj(ptr noundef nonnull %13, i1 noundef zeroext true, i32 noundef %14)
  %.not37 = icmp ne ptr %16, null
  %17 = ptrtoint ptr %16 to i64
  %18 = ptrtoint ptr %.02962 to i64
  %19 = sub i64 %17, %18
  %20 = icmp sgt i64 %19, 1
  %or.cond = and i1 %.not37, %20
  br i1 %or.cond, label %21, label %.loopexit43

21:                                               ; preds = %15
  %22 = load i8, ptr %16, align 1
  %23 = icmp eq i8 %22, 59
  %24 = getelementptr inbounds i8, ptr %16, i64 1
  %spec.select = select i1 %23, ptr %24, ptr null
  br label %.loopexit43

25:                                               ; preds = %9
  %26 = zext i32 %14 to i64
  %27 = tail call noundef ptr @memchr(ptr noundef nonnull %13, i32 noundef 59, i64 noundef %26) #25
  %.not36 = icmp eq ptr %27, null
  br i1 %.not36, label %.loopexit43, label %28

28:                                               ; preds = %25
  %29 = ptrtoint ptr %27 to i64
  %30 = ptrtoint ptr %13 to i64
  %31 = sub i64 %29, %30
  %32 = and i64 %31, 4294967295
  %33 = icmp eq i64 %32, 0
  br i1 %33, label %.loopexit, label %.lr.ph.i

.lr.ph.i:                                         ; preds = %28
  %34 = getelementptr inbounds i8, ptr %13, i64 %32
  br label %.lr.ph.split.split.i

.lr.ph.split.split.i:                             ; preds = %43, %.lr.ph.i
  %.021.i.idx = phi i64 [ %.021.i.add, %43 ], [ 1, %.lr.ph.i ]
  %.021.i.ptr = getelementptr inbounds i8, ptr %.02962, i64 %.021.i.idx
  %35 = load i8, ptr %.021.i.ptr, align 1
  switch i8 %35, label %43 [
    i8 46, label %.loopexit
    i8 59, label %.loopexit
    i8 91, label %.loopexit
    i8 47, label %36
  ]

36:                                               ; preds = %.lr.ph.split.split.i
  %37 = icmp eq i64 %.021.i.idx, 1
  br i1 %37, label %.loopexit, label %38

38:                                               ; preds = %36
  %39 = getelementptr inbounds i8, ptr %.021.i.ptr, i64 1
  %.not19.i = icmp ult ptr %39, %34
  br i1 %.not19.i, label %40, label %.loopexit

40:                                               ; preds = %38
  %41 = load i8, ptr %39, align 1
  %42 = icmp eq i8 %41, 47
  br i1 %42, label %.loopexit, label %43

43:                                               ; preds = %40, %.lr.ph.split.split.i
  %.021.i.add = add nuw nsw i64 %.021.i.idx, 1
  %.ptr42 = getelementptr inbounds i8, ptr %.02962, i64 %.021.i.add
  %.not.i = icmp eq ptr %.ptr42, %34
  br i1 %.not.i, label %_ZN15ClassFileParser23verify_unqualified_nameEPKcji.exit, label %.lr.ph.split.split.i, !llvm.loop !11

.loopexit:                                        ; preds = %.lr.ph.split.split.i, %.lr.ph.split.split.i, %.lr.ph.split.split.i, %40, %38, %36, %28
  tail call void @_ZNK15ClassFileParser21classfile_parse_errorEPKcP10JavaThread(ptr noundef nonnull align 8 dereferenceable(440) %0, ptr noundef nonnull @.str.176, ptr noundef %4) #23
  br label %.loopexit43

_ZN15ClassFileParser23verify_unqualified_nameEPKcji.exit: ; preds = %43
  %sext = shl i64 %31, 32
  %44 = ashr exact i64 %sext, 32
  %45 = getelementptr inbounds i8, ptr %13, i64 %44
  %46 = getelementptr inbounds i8, ptr %45, i64 1
  br label %.loopexit43

47:                                               ; preds = %.lr.ph
  %exitcond = icmp eq i32 %.03259, 255
  br i1 %exitcond, label %48, label %49

48:                                               ; preds = %47
  tail call void @_ZNK15ClassFileParser21classfile_parse_errorEPKcP10JavaThread(ptr noundef nonnull align 8 dereferenceable(440) %0, ptr noundef nonnull @.str.177, ptr noundef %4) #23
  br label %.loopexit43

49:                                               ; preds = %47
  %50 = add nuw nsw i32 %.03259, 1
  %51 = getelementptr inbounds i8, ptr %.02962, i64 1
  %52 = add i32 %.03160, -1
  %.not = icmp eq i32 %52, 0
  br i1 %.not, label %.loopexit43, label %.lr.ph, !llvm.loop !64

.loopexit43:                                      ; preds = %.lr.ph, %49, %5, %21, %15, %25, %7, %48, %_ZN15ClassFileParser23verify_unqualified_nameEPKcji.exit, %.loopexit, %.loopexit44
  %.0 = phi ptr [ null, %48 ], [ %46, %_ZN15ClassFileParser23verify_unqualified_nameEPKcji.exit ], [ null, %.loopexit ], [ %8, %.loopexit44 ], [ null, %7 ], [ null, %25 ], [ null, %15 ], [ %spec.select, %21 ], [ null, %5 ], [ null, %49 ], [ null, %.lr.ph ]
  ret ptr %.0
}